target datalayout = "e-m:e-p270:32:32-p271:32:32-p272:64:64-i64:64-i128:128-f80:128-n8:16:32:64-S128"
target triple = "x86_64-pc-linux-gnu"

%struct.ERR_string_data_st = type { i64, ptr }

@err_string_lock = internal global ptr null, align 8
@int_error_hash = internal global ptr null, align 8
@err_string_init = internal global i32 0, align 4
@do_err_strings_init_ossl_ret_ = internal global i32 0, align 4

; Function Attrs: inlinehint nounwind uwtable
define internal ptr @ossl_check_const_ERR_STRING_DATA_lh_plain_type(ptr noundef %0) #2 {
  %2 = alloca ptr, align 8
  store ptr %0, ptr %2, align 8, !tbaa !19
  %3 = load ptr, ptr %2, align 8, !tbaa !19
  ret ptr %3
}

; Function Attrs: inlinehint nounwind uwtable
define internal ptr @ossl_check_ERR_STRING_DATA_lh_type(ptr noundef %0) #2 {
  %2 = alloca ptr, align 8
  store ptr %0, ptr %2, align 8, !tbaa !17
  %3 = load ptr, ptr %2, align 8, !tbaa !17
  ret ptr %3
}

; Function Attrs: nounwind uwtable
define internal ptr @int_err_get_item(ptr noundef %0) #0 {
  %2 = alloca ptr, align 8
  %3 = alloca ptr, align 8
  %4 = alloca ptr, align 8
  %5 = alloca i32, align 4
  store ptr %0, ptr %3, align 8, !tbaa !19
  call void @llvm.lifetime.start.p0(i64 8, ptr %4) #8
  store ptr null, ptr %4, align 8, !tbaa !19
  %6 = load ptr, ptr @err_string_lock, align 8, !tbaa !16
  %7 = call i32 @CRYPTO_THREAD_read_lock(ptr noundef %6)
  %8 = icmp ne i32 %7, 0
  br i1 %8, label %10, label %9

9:                                                ; preds = %1
  store ptr null, ptr %2, align 8
  store i32 1, ptr %5, align 4
  br label %19

10:                                               ; preds = %1
  %11 = load ptr, ptr @int_error_hash, align 8, !tbaa !17
  %12 = call ptr @ossl_check_ERR_STRING_DATA_lh_type(ptr noundef %11)
  %13 = load ptr, ptr %3, align 8, !tbaa !19
  %14 = call ptr @ossl_check_const_ERR_STRING_DATA_lh_plain_type(ptr noundef %13)
  %15 = call ptr @OPENSSL_LH_retrieve(ptr noundef %12, ptr noundef %14)
  store ptr %15, ptr %4, align 8, !tbaa !19
  %16 = load ptr, ptr @err_string_lock, align 8, !tbaa !16
  %17 = call i32 @CRYPTO_THREAD_unlock(ptr noundef %16)
  %18 = load ptr, ptr %4, align 8, !tbaa !19
  store ptr %18, ptr %2, align 8
  store i32 1, ptr %5, align 4
  br label %19

19:                                               ; preds = %10, %9
  call void @llvm.lifetime.end.p0(i64 8, ptr %4) #8
  %20 = load ptr, ptr %2, align 8
  ret ptr %20
}

; Function Attrs: inlinehint nounwind uwtable
define internal i32 @ERR_GET_LIB(i64 noundef %0) #2 {
  %2 = alloca i32, align 4
  %3 = alloca i64, align 8
  store i64 %0, ptr %3, align 8, !tbaa !12
  %4 = load i64, ptr %3, align 8, !tbaa !12
  %5 = and i64 %4, 2147483648
  %6 = icmp ne i64 %5, 0
  br i1 %6, label %7, label %8

7:                                                ; preds = %1
  store i32 2, ptr %2, align 4
  br label %13

8:                                                ; preds = %1
  %9 = load i64, ptr %3, align 8, !tbaa !12
  %10 = lshr i64 %9, 23
  %11 = and i64 %10, 255
  %12 = trunc i64 %11 to i32
  store i32 %12, ptr %2, align 4
  br label %13

13:                                               ; preds = %8, %7
  %14 = load i32, ptr %2, align 4
  ret i32 %14
}

; Function Attrs: nounwind uwtable
define ptr @ERR_lib_error_string(i64 noundef %0) #0 {
  %2 = alloca ptr, align 8
  %3 = alloca i64, align 8
  %4 = alloca %struct.ERR_string_data_st, align 8
  %5 = alloca ptr, align 8
  %6 = alloca i64, align 8
  %7 = alloca i32, align 4
  store i64 %0, ptr %3, align 8, !tbaa !12
  call void @llvm.lifetime.start.p0(i64 16, ptr %4) #8
  call void @llvm.lifetime.start.p0(i64 8, ptr %5) #8
  call void @llvm.lifetime.start.p0(i64 8, ptr %6) #8
  %8 = call i32 @CRYPTO_THREAD_run_once(ptr noundef @err_string_init, ptr noundef @do_err_strings_init_ossl_)
  %9 = icmp ne i32 %8, 0
  br i1 %9, label %10, label %13

10:                                               ; preds = %1
  %11 = load i32, ptr @do_err_strings_init_ossl_ret_, align 4, !tbaa !8
  %12 = icmp ne i32 %11, 0
  br i1 %12, label %15, label %14

13:                                               ; preds = %1
  br i1 false, label %15, label %14

14:                                               ; preds = %13, %10
  store ptr null, ptr %2, align 8
  store i32 1, ptr %7, align 4
  br label %34

15:                                               ; preds = %13, %10
  %16 = load i64, ptr %3, align 8, !tbaa !12
  %17 = call i32 @ERR_GET_LIB(i64 noundef %16)
  %18 = sext i32 %17 to i64
  store i64 %18, ptr %6, align 8, !tbaa !12
  %19 = load i64, ptr %6, align 8, !tbaa !12
  %20 = and i64 %19, 255
  %21 = shl i64 %20, 23
  %22 = or i64 %21, 0
  %23 = getelementptr inbounds nuw %struct.ERR_string_data_st, ptr %4, i32 0, i32 0
  store i64 %22, ptr %23, align 8, !tbaa !21
  %24 = call ptr @int_err_get_item(ptr noundef %4)
  store ptr %24, ptr %5, align 8, !tbaa !19
  %25 = load ptr, ptr %5, align 8, !tbaa !19
  %26 = icmp eq ptr %25, null
  br i1 %26, label %27, label %28

27:                                               ; preds = %15
  br label %32

28:                                               ; preds = %15
  %29 = load ptr, ptr %5, align 8, !tbaa !19
  %30 = getelementptr inbounds nuw %struct.ERR_string_data_st, ptr %29, i32 0, i32 1
  %31 = load ptr, ptr %30, align 8, !tbaa !35
  br label %32

32:                                               ; preds = %28, %27
  %33 = phi ptr [ null, %27 ], [ %31, %28 ]
  store ptr %33, ptr %2, align 8
  store i32 1, ptr %7, align 4
  br label %34

34:                                               ; preds = %32, %14
  call void @llvm.lifetime.end.p0(i64 8, ptr %6) #8
  call void @llvm.lifetime.end.p0(i64 8, ptr %5) #8
  call void @llvm.lifetime.end.p0(i64 16, ptr %4) #8
  %35 = load ptr, ptr %2, align 8
  ret ptr %35
}