; Function Attrs: nounwind uwtable
define ptr @ERR_lib_error_string(i64 noundef %0) local_unnamed_addr #0 {
  %2 = alloca %struct.ERR_string_data_st, align 8
  call void @llvm.lifetime.start.p0(i64 16, ptr nonnull %2) #10
  %3 = tail call i32 @CRYPTO_THREAD_run_once(ptr noundef nonnull @err_string_init, ptr noundef nonnull @do_err_strings_init_ossl_) #10
  %4 = icmp ne i32 %3, 0
  %5 = load i32, ptr @do_err_strings_init_ossl_ret_, align 4
  %6 = icmp ne i32 %5, 0
  %or.cond = select i1 %4, i1 %6, i1 false
  br i1 %or.cond, label %7, label %int_err_get_item.exit.thread

7:                                                ; preds = %1
  %8 = and i64 %0, 2147483648
  %.not.i = icmp eq i64 %8, 0
  %9 = and i64 %0, 4286578688
  %10 = select i1 %.not.i, i64 %9, i64 16777216
  store i64 %10, ptr %2, align 8, !tbaa !17
  %11 = load ptr, ptr @err_string_lock, align 8, !tbaa !14
  %12 = tail call i32 @CRYPTO_THREAD_read_lock(ptr noundef %11) #10
  %.not.i6 = icmp eq i32 %12, 0
  br i1 %.not.i6, label %int_err_get_item.exit.thread, label %int_err_get_item.exit

int_err_get_item.exit:                            ; preds = %7
  %13 = load ptr, ptr @int_error_hash, align 8, !tbaa !15
  %14 = call ptr @OPENSSL_LH_retrieve(ptr noundef %13, ptr noundef nonnull %2) #10
  %15 = load ptr, ptr @err_string_lock, align 8, !tbaa !14
  %16 = call i32 @CRYPTO_THREAD_unlock(ptr noundef %15) #10
  %17 = icmp eq ptr %14, null
  br i1 %17, label %int_err_get_item.exit.thread, label %18

18:                                               ; preds = %int_err_get_item.exit
  %19 = getelementptr inbounds nuw i8, ptr %14, i64 8
  %20 = load ptr, ptr %19, align 8, !tbaa !28
  br label %int_err_get_item.exit.thread

int_err_get_item.exit.thread:                     ; preds = %7, %18, %int_err_get_item.exit, %1
  %.0 = phi ptr [ null, %1 ], [ %20, %18 ], [ null, %int_err_get_item.exit ], [ null, %7 ]
  call void @llvm.lifetime.end.p0(i64 16, ptr nonnull %2) #10
  ret ptr %.0
}